target datalayout = "e-m:e-p270:32:32-p271:32:32-p272:64:64-i64:64-i128:128-f80:128-n8:16:32:64-S128"
target triple = "x86_64-pc-linux-gnu"

%struct._asn1_ctx_t = type { i32, i32, i8, ptr, ptr, ptr, ptr, ptr, %struct.anon, %struct.anon.2, %struct.anon.3, ptr }
%struct.anon = type { i32, i8, i8, i8, ptr, ptr, i32, i32, ptr, ptr, ptr, %union.anon }
%union.anon = type { %struct.anon.0 }
%struct.anon.0 = type { ptr }
%struct.anon.2 = type { ptr, ptr, ptr }
%struct.anon.3 = type { i32, i8, ptr, i32, i32, ptr, ptr, ptr, %union.anon.4 }
%union.anon.4 = type { %struct.anon.5 }
%struct.anon.5 = type { ptr }
%struct._packet_info = type { ptr, ptr, i32, i32, %struct.nstime_t, %struct.nstime_t, %struct.nstime_t, i8, ptr, ptr, ptr, ptr, %struct._address, %struct._address, %struct._address, %struct._address, %struct._address, %struct._address, i32, ptr, i8, [3 x i8], %struct.anon.7, i32, i32, i32, i32, ptr, i8, ptr, ptr, i16, i16, i32, i32, i16, i32, i32, ptr, ptr, ptr, i8, i8, i16, i16, i16, i32, i16, i16, ptr, ptr, ptr, ptr, ptr, i32, i32 }
%struct.nstime_t = type { i64, i32 }
%struct._address = type { i32, i32, ptr, ptr }
%struct.anon.7 = type { i8, [3 x i8] }
%struct._frame_data = type <{ i32, i32, i32, i32, i32, [4 x i8], i64, ptr, ptr, ptr, i8, i16, [5 x i8], %struct.nstime_t, %struct.nstime_t, i32, i32 }>
%struct.h223_pending_olc = type { ptr, ptr }
%struct._olc_info_t = type { i16, %struct._channel_info_t, %struct._channel_info_t }
%struct._channel_info_t = type { [32 x i8], ptr, %struct._unicast_addr_t, %struct._unicast_addr_t, i32, i8, i8 }
%struct._unicast_addr_t = type { %struct._address, [16 x i8], i32 }
%struct._h245_packet_info = type { i32, [50 x i8], [50 x i8] }

@h245_pi = hidden global ptr null, align 8
@upcoming_olc = internal global ptr null, align 8
@h223_fw_lc_num = internal global i16 0, align 2
@h223_lc_params_temp = internal global ptr null, align 8
@ett_h245_OpenLogicalChannel = internal global i32 0, align 4
@h223_fw_lc_params = internal global ptr null, align 8
@h223_rev_lc_params = internal global ptr null, align 8
@h223_pending_olc_reqs = internal global [2 x ptr] zeroinitializer, align 16
@fast_start = internal global i8 0, align 1
@h245_pending_olc_reqs = internal global ptr null, align 8
@.str.3055 = private unnamed_addr constant [9 x i8] c"%s/%s/%u\00", align 1

; Function Attrs: null_pointer_is_valid sspstrong uwtable
define internal ptr @gen_olc_key(i16 noundef zeroext %0, ptr noundef %1, ptr noundef %2, ptr noundef %3) #1 {
  %5 = alloca i16, align 2
  %6 = alloca ptr, align 8
  %7 = alloca ptr, align 8
  %8 = alloca ptr, align 8
  store i16 %0, ptr %5, align 2
  store ptr %1, ptr %6, align 8
  store ptr %2, ptr %7, align 8
  store ptr %3, ptr %8, align 8
  %9 = load ptr, ptr %8, align 8
  %10 = load ptr, ptr %8, align 8
  %11 = load ptr, ptr %6, align 8
  %12 = call ptr @address_to_str(ptr noundef %10, ptr noundef %11)
  %13 = load ptr, ptr %8, align 8
  %14 = load ptr, ptr %7, align 8
  %15 = call ptr @address_to_str(ptr noundef %13, ptr noundef %14)
  %16 = load i16, ptr %5, align 2
  %17 = zext i16 %16 to i32
  %18 = call noalias ptr (ptr, ptr, ...) @wmem_strdup_printf(ptr noundef %9, ptr noundef @.str.3055, ptr noundef %12, ptr noundef %15, i32 noundef %17)
  ret ptr %18
}

; Function Attrs: null_pointer_is_valid sspstrong uwtable
define hidden i32 @dissect_h245_OpenLogicalChannel(ptr noundef %0, i32 noundef %1, ptr noundef %2, ptr noundef %3, i32 noundef %4) #1 {
  %6 = alloca ptr, align 8
  %7 = alloca i32, align 4
  %8 = alloca ptr, align 8
  %9 = alloca ptr, align 8
  %10 = alloca i32, align 4
  %11 = alloca i32, align 4
  %12 = alloca ptr, align 8
  store ptr %0, ptr %6, align 8
  store i32 %1, ptr %7, align 4
  store ptr %2, ptr %8, align 8
  store ptr %3, ptr %9, align 8
  store i32 %4, ptr %10, align 4
  call void @llvm.lifetime.start.p0(i64 4, ptr %11) #12
  %13 = load ptr, ptr %8, align 8
  %14 = getelementptr inbounds nuw %struct._asn1_ctx_t, ptr %13, i32 0, i32 3
  %15 = load ptr, ptr %14, align 8
  %16 = getelementptr inbounds nuw %struct._packet_info, ptr %15, i32 0, i32 8
  %17 = load ptr, ptr %16, align 8
  %18 = getelementptr inbounds nuw %struct._frame_data, ptr %17, i32 0, i32 11
  %19 = load i16, ptr %18, align 1
  %20 = lshr i16 %19, 3
  %21 = and i16 %20, 1
  %22 = zext i16 %21 to i32
  %23 = icmp ne i32 %22, 0
  br i1 %23, label %27, label %24

24:                                               ; preds = %5
  %25 = call ptr @wmem_file_scope()
  %26 = call noalias ptr @wmem_alloc0(ptr noundef %25, i64 noundef 296) #13
  br label %28

27:                                               ; preds = %5
  br label %28

28:                                               ; preds = %27, %24
  %29 = phi ptr [ %26, %24 ], [ null, %27 ]
  store ptr %29, ptr @upcoming_olc, align 8
  store i16 0, ptr @h223_fw_lc_num, align 2
  store ptr null, ptr @h223_lc_params_temp, align 8
  %30 = load ptr, ptr %6, align 8
  %31 = load i32, ptr %7, align 4
  %32 = load ptr, ptr %8, align 8
  %33 = load ptr, ptr %9, align 8
  %34 = load i32, ptr %10, align 4
  %35 = load i32, ptr @ett_h245_OpenLogicalChannel, align 4
  %36 = call i32 @dissect_per_sequence(ptr noundef %30, i32 noundef %31, ptr noundef %32, ptr noundef %33, i32 noundef %34, i32 noundef %35, ptr noundef @OpenLogicalChannel_sequence)
  store i32 %36, ptr %7, align 4
  %37 = load i16, ptr @h223_fw_lc_num, align 2
  %38 = zext i16 %37 to i32
  %39 = icmp ne i32 %38, 0
  br i1 %39, label %40, label %75

40:                                               ; preds = %28
  %41 = load ptr, ptr @h223_fw_lc_params, align 8
  %42 = icmp ne ptr %41, null
  br i1 %42, label %43, label %75

43:                                               ; preds = %40
  call void @llvm.lifetime.start.p0(i64 8, ptr %12) #12
  %44 = call ptr @wmem_file_scope()
  %45 = call noalias ptr @wmem_alloc(ptr noundef %44, i64 noundef 16) #13
  store ptr %45, ptr %12, align 8
  %46 = load ptr, ptr @h223_fw_lc_params, align 8
  %47 = load ptr, ptr %12, align 8
  %48 = getelementptr inbounds nuw %struct.h223_pending_olc, ptr %47, i32 0, i32 0
  store ptr %46, ptr %48, align 8
  %49 = load ptr, ptr @h223_rev_lc_params, align 8
  %50 = load ptr, ptr %12, align 8
  %51 = getelementptr inbounds nuw %struct.h223_pending_olc, ptr %50, i32 0, i32 1
  store ptr %49, ptr %51, align 8
  %52 = load i16, ptr @h223_fw_lc_num, align 2
  %53 = zext i16 %52 to i32
  store i32 %53, ptr %11, align 4
  %54 = load ptr, ptr %8, align 8
  %55 = getelementptr inbounds nuw %struct._asn1_ctx_t, ptr %54, i32 0, i32 3
  %56 = load ptr, ptr %55, align 8
  %57 = getelementptr inbounds nuw %struct._packet_info, ptr %56, i32 0, i32 37
  %58 = load i32, ptr %57, align 4
  %59 = icmp sgt i32 %58, -1
  br i1 %59, label %60, label %74

60:                                               ; preds = %43
  %61 = load ptr, ptr %8, align 8
  %62 = getelementptr inbounds nuw %struct._asn1_ctx_t, ptr %61, i32 0, i32 3
  %63 = load ptr, ptr %62, align 8
  %64 = getelementptr inbounds nuw %struct._packet_info, ptr %63, i32 0, i32 37
  %65 = load i32, ptr %64, align 4
  %66 = sext i32 %65 to i64
  %67 = getelementptr [2 x ptr], ptr @h223_pending_olc_reqs, i64 0, i64 %66
  %68 = load ptr, ptr %67, align 8
  %69 = load i32, ptr %11, align 4
  %70 = sext i32 %69 to i64
  %71 = inttoptr i64 %70 to ptr
  %72 = load ptr, ptr %12, align 8
  %73 = call ptr @wmem_map_insert(ptr noundef %68, ptr noundef %71, ptr noundef %72)
  br label %74

74:                                               ; preds = %60, %43
  call void @llvm.lifetime.end.p0(i64 8, ptr %12) #12
  br label %75

75:                                               ; preds = %74, %40, %28
  %76 = load ptr, ptr @upcoming_olc, align 8
  %77 = icmp ne ptr %76, null
  br i1 %77, label %78, label %111

78:                                               ; preds = %75
  %79 = load i8, ptr @fast_start, align 1, !range !6, !noundef !7
  %80 = trunc i8 %79 to i1
  br i1 %80, label %81, label %87

81:                                               ; preds = %78
  %82 = load ptr, ptr %8, align 8
  %83 = getelementptr inbounds nuw %struct._asn1_ctx_t, ptr %82, i32 0, i32 3
  %84 = load ptr, ptr %83, align 8
  %85 = load ptr, ptr @upcoming_olc, align 8
  %86 = getelementptr inbounds nuw %struct._olc_info_t, ptr %85, i32 0, i32 2
  call void @h245_setup_channels(ptr noundef %84, ptr noundef %86)
  br label %110

87:                                               ; preds = %78
  %88 = load ptr, ptr @h245_pending_olc_reqs, align 8
  %89 = call ptr @wmem_file_scope()
  %90 = load ptr, ptr @upcoming_olc, align 8
  %91 = getelementptr inbounds nuw %struct._olc_info_t, ptr %90, i32 0, i32 0
  %92 = load i16, ptr %91, align 8
  %93 = load ptr, ptr %8, align 8
  %94 = getelementptr inbounds nuw %struct._asn1_ctx_t, ptr %93, i32 0, i32 3
  %95 = load ptr, ptr %94, align 8
  %96 = getelementptr inbounds nuw %struct._packet_info, ptr %95, i32 0, i32 17
  %97 = load ptr, ptr %8, align 8
  %98 = getelementptr inbounds nuw %struct._asn1_ctx_t, ptr %97, i32 0, i32 3
  %99 = load ptr, ptr %98, align 8
  %100 = getelementptr inbounds nuw %struct._packet_info, ptr %99, i32 0, i32 16
  %101 = load ptr, ptr %8, align 8
  %102 = getelementptr inbounds nuw %struct._asn1_ctx_t, ptr %101, i32 0, i32 3
  %103 = load ptr, ptr %102, align 8
  %104 = getelementptr inbounds nuw %struct._packet_info, ptr %103, i32 0, i32 51
  %105 = load ptr, ptr %104, align 8
  %106 = call ptr @gen_olc_key(i16 noundef zeroext %92, ptr noundef %96, ptr noundef %100, ptr noundef %105)
  %107 = call noalias ptr @wmem_strdup(ptr noundef %89, ptr noundef %106)
  %108 = load ptr, ptr @upcoming_olc, align 8
  %109 = call ptr @wmem_map_insert(ptr noundef %88, ptr noundef %107, ptr noundef %108)
  br label %110

110:                                              ; preds = %87, %81
  br label %111

111:                                              ; preds = %110, %75
  store ptr null, ptr @upcoming_olc, align 8
  %112 = load ptr, ptr @h245_pi, align 8
  %113 = icmp ne ptr %112, null
  br i1 %113, label %114, label %117

114:                                              ; preds = %111
  %115 = load ptr, ptr @h245_pi, align 8
  %116 = getelementptr inbounds nuw %struct._h245_packet_info, ptr %115, i32 0, i32 0
  store i32 4, ptr %116, align 4
  br label %117

117:                                              ; preds = %114, %111
  %118 = load i32, ptr %7, align 4
  call void @llvm.lifetime.end.p0(i64 4, ptr %11) #12
  ret i32 %118
}