; Function Attrs: null_pointer_is_valid sspstrong uwtable
define hidden i32 @dissect_h245_OpenLogicalChannel(ptr noundef %0, i32 noundef %1, ptr noundef %2, ptr noundef %3, i32 noundef %4) #1 {
  %6 = getelementptr inbounds nuw i8, ptr %2, i64 16
  %7 = load ptr, ptr %6, align 8
  %8 = getelementptr inbounds nuw i8, ptr %7, i64 80
  %9 = load ptr, ptr %8, align 8
  %10 = getelementptr inbounds nuw i8, ptr %9, i64 57
  %11 = load i16, ptr %10, align 1
  %12 = and i16 %11, 8
  %.not = icmp eq i16 %12, 0
  br i1 %.not, label %13, label %16

13:                                               ; preds = %5
  %14 = tail call ptr @wmem_file_scope()
  %15 = tail call noalias dereferenceable_or_null(296) ptr @wmem_alloc0(ptr noundef %14, i64 noundef 296) #11
  br label %16

16:                                               ; preds = %5, %13
  %17 = phi ptr [ %15, %13 ], [ null, %5 ]
  store ptr %17, ptr @upcoming_olc, align 8
  store i16 0, ptr @h223_fw_lc_num, align 2
  store ptr null, ptr @h223_lc_params_temp, align 8
  %18 = load i32, ptr @ett_h245_OpenLogicalChannel, align 4
  %19 = tail call i32 @dissect_per_sequence(ptr noundef %0, i32 noundef %1, ptr noundef %2, ptr noundef %3, i32 noundef %4, i32 noundef %18, ptr noundef nonnull @OpenLogicalChannel_sequence)
  %20 = load i16, ptr @h223_fw_lc_num, align 2
  %21 = icmp ne i16 %20, 0
  %22 = load ptr, ptr @h223_fw_lc_params, align 8
  %23 = icmp ne ptr %22, null
  %or.cond = select i1 %21, i1 %23, i1 false
  br i1 %or.cond, label %24, label %42

24:                                               ; preds = %16
  %25 = tail call ptr @wmem_file_scope()
  %26 = tail call noalias dereferenceable_or_null(16) ptr @wmem_alloc(ptr noundef %25, i64 noundef 16) #11
  %27 = load ptr, ptr @h223_fw_lc_params, align 8
  store ptr %27, ptr %26, align 8
  %28 = load ptr, ptr @h223_rev_lc_params, align 8
  %29 = getelementptr inbounds nuw i8, ptr %26, i64 8
  store ptr %28, ptr %29, align 8
  %30 = load ptr, ptr %6, align 8
  %31 = getelementptr inbounds nuw i8, ptr %30, i64 348
  %32 = load i32, ptr %31, align 4
  %33 = icmp sgt i32 %32, -1
  br i1 %33, label %34, label %42

34:                                               ; preds = %24
  %35 = load i16, ptr @h223_fw_lc_num, align 2
  %36 = zext nneg i32 %32 to i64
  %37 = getelementptr [2 x ptr], ptr @h223_pending_olc_reqs, i64 0, i64 %36
  %38 = load ptr, ptr %37, align 8
  %39 = zext i16 %35 to i64
  %40 = inttoptr i64 %39 to ptr
  %41 = tail call ptr @wmem_map_insert(ptr noundef %38, ptr noundef %40, ptr noundef %26)
  br label %42

42:                                               ; preds = %24, %34, %16
  %43 = load ptr, ptr @upcoming_olc, align 8
  %.not19 = icmp eq ptr %43, null
  br i1 %.not19, label %65, label %44

44:                                               ; preds = %42
  %.b20 = load i1, ptr @fast_start, align 1
  br i1 %.b20, label %45, label %48

45:                                               ; preds = %44
  %46 = load ptr, ptr %6, align 8
  %47 = getelementptr inbounds nuw i8, ptr %43, i64 152
  tail call fastcc void @h245_setup_channels(ptr noundef %46, ptr noundef nonnull %47)
  br label %65

48:                                               ; preds = %44
  %49 = load ptr, ptr @h245_pending_olc_reqs, align 8
  %50 = tail call ptr @wmem_file_scope()
  %51 = load ptr, ptr @upcoming_olc, align 8
  %52 = load i16, ptr %51, align 8
  %53 = load ptr, ptr %6, align 8
  %54 = getelementptr inbounds nuw i8, ptr %53, i64 232
  %55 = getelementptr inbounds nuw i8, ptr %53, i64 208
  %56 = getelementptr inbounds nuw i8, ptr %53, i64 408
  %57 = load ptr, ptr %56, align 8
  %58 = tail call ptr @address_to_str(ptr noundef %57, ptr noundef nonnull %54)
  %59 = tail call ptr @address_to_str(ptr noundef %57, ptr noundef nonnull %55)
  %60 = zext i16 %52 to i32
  %61 = tail call noalias ptr (ptr, ptr, ...) @wmem_strdup_printf(ptr noundef %57, ptr noundef nonnull @.str.3055, ptr noundef %58, ptr noundef %59, i32 noundef %60)
  %62 = tail call noalias ptr @wmem_strdup(ptr noundef %50, ptr noundef %61)
  %63 = load ptr, ptr @upcoming_olc, align 8
  %64 = tail call ptr @wmem_map_insert(ptr noundef %49, ptr noundef %62, ptr noundef %63)
  br label %65

65:                                               ; preds = %45, %48, %42
  store ptr null, ptr @upcoming_olc, align 8
  %66 = load ptr, ptr @h245_pi, align 8
  %.not21 = icmp eq ptr %66, null
  br i1 %.not21, label %68, label %67

67:                                               ; preds = %65
  store i32 4, ptr %66, align 4
  br label %68

68:                                               ; preds = %67, %65
  ret i32 %19
}